target datalayout = "e-m:e-p270:32:32-p271:32:32-p272:64:64-i64:64-i128:128-f80:128-n8:16:32:64-S128"
target triple = "x86_64-pc-linux-gnu"

%struct.nameData = type { [64 x i8] }
%struct.HeapTupleData = type { i32, %struct.ItemPointerData, i32, ptr }
%struct.ItemPointerData = type { %struct.BlockIdData, i16 }
%struct.BlockIdData = type { i16, i16 }
%struct.HeapTupleHeaderData = type { %union.anon, %struct.ItemPointerData, i16, i16, i8, [0 x i8] }
%union.anon = type { %struct.HeapTupleFields }
%struct.HeapTupleFields = type { i32, i32, %union.anon.1 }
%union.anon.1 = type { i32 }
%struct.RelationData = type { %struct.RelFileLocator, ptr, i32, i32, i8, i8, i8, i8, i8, i32, i32, i32, i32, ptr, ptr, i32, %struct.LockInfoData, ptr, ptr, ptr, ptr, ptr, i8, ptr, ptr, ptr, ptr, ptr, ptr, i32, ptr, i8, ptr, ptr, i32, i8, i32, ptr, i8, ptr, ptr, ptr, ptr, ptr, ptr, ptr, i32, ptr, ptr, ptr, ptr, ptr, ptr, ptr, ptr, ptr, ptr, ptr, ptr, ptr, ptr, ptr, ptr, ptr, ptr, ptr, i32, i8, ptr }
%struct.RelFileLocator = type { i32, i32, i32 }
%struct.LockInfoData = type { %struct.LockRelId }
%struct.LockRelId = type { i32, i32 }
%struct.FormData_pg_foreign_server = type { i32, %struct.nameData, i32, i32 }
%struct.ForeignDataWrapper = type { i32, i32, ptr, i32, i32, ptr }

@object_access_hook = external global ptr, align 8

; Function Attrs: inlinehint nounwind uwtable
define internal i64 @PointerGetDatum(ptr noundef %0) #6 {
  %2 = alloca ptr, align 8
  store ptr %0, ptr %2, align 8
  %3 = load ptr, ptr %2, align 8
  %4 = ptrtoint ptr %3 to i64
  ret i64 %4
}

; Function Attrs: inlinehint nounwind uwtable
define internal ptr @DatumGetPointer(i64 noundef %0) #6 {
  %2 = alloca i64, align 8
  store i64 %0, ptr %2, align 8
  %3 = load i64, ptr %2, align 8
  %4 = inttoptr i64 %3 to ptr
  ret ptr %4
}

; Function Attrs: inlinehint nounwind uwtable
define internal i64 @ObjectIdGetDatum(i32 noundef %0) #6 {
  %2 = alloca i32, align 4
  store i32 %0, ptr %2, align 4
  %3 = load i32, ptr %2, align 4
  %4 = zext i32 %3 to i64
  ret i64 %4
}

; Function Attrs: inlinehint nounwind uwtable
define internal ptr @GETSTRUCT(ptr noundef %0) #6 {
  %2 = alloca ptr, align 8
  store ptr %0, ptr %2, align 8
  %3 = load ptr, ptr %2, align 8
  %4 = getelementptr inbounds nuw %struct.HeapTupleData, ptr %3, i32 0, i32 3
  %5 = load ptr, ptr %4, align 8
  %6 = load ptr, ptr %2, align 8
  %7 = getelementptr inbounds nuw %struct.HeapTupleData, ptr %6, i32 0, i32 3
  %8 = load ptr, ptr %7, align 8
  %9 = getelementptr inbounds nuw %struct.HeapTupleHeaderData, ptr %8, i32 0, i32 4
  %10 = load i8, ptr %9, align 2
  %11 = zext i8 %10 to i32
  %12 = sext i32 %11 to i64
  %13 = getelementptr inbounds i8, ptr %5, i64 %12
  ret ptr %13
}

; Function Attrs: nounwind uwtable
define internal void @AlterForeignServerOwner_internal(ptr noundef %0, ptr noundef %1, i32 noundef %2) #0 {
  %4 = alloca ptr, align 8
  %5 = alloca ptr, align 8
  %6 = alloca i32, align 4
  %7 = alloca ptr, align 8
  %8 = alloca [8 x i64], align 16
  %9 = alloca [8 x i8], align 1
  %10 = alloca [8 x i8], align 1
  %11 = alloca ptr, align 8
  %12 = alloca i64, align 8
  %13 = alloca i8, align 1
  %14 = alloca i32, align 4
  %15 = alloca i32, align 4
  %16 = alloca ptr, align 8
  store ptr %0, ptr %4, align 8
  store ptr %1, ptr %5, align 8
  store i32 %2, ptr %6, align 4
  call void @llvm.lifetime.start.p0(i64 8, ptr %7) #9
  call void @llvm.lifetime.start.p0(i64 64, ptr %8) #9
  call void @llvm.lifetime.start.p0(i64 8, ptr %9) #9
  call void @llvm.lifetime.start.p0(i64 8, ptr %10) #9
  call void @llvm.lifetime.start.p0(i64 8, ptr %11) #9
  call void @llvm.lifetime.start.p0(i64 8, ptr %12) #9
  call void @llvm.lifetime.start.p0(i64 1, ptr %13) #9
  %17 = load ptr, ptr %5, align 8
  %18 = call ptr @GETSTRUCT(ptr noundef %17)
  store ptr %18, ptr %7, align 8
  %19 = load ptr, ptr %7, align 8
  %20 = getelementptr inbounds nuw %struct.FormData_pg_foreign_server, ptr %19, i32 0, i32 2
  %21 = load i32, ptr %20, align 4
  %22 = load i32, ptr %6, align 4
  %23 = icmp ne i32 %21, %22
  br i1 %23, label %24, label %102

24:                                               ; preds = %3
  %25 = call zeroext i1 @superuser()
  br i1 %25, label %58, label %26

26:                                               ; preds = %24
  call void @llvm.lifetime.start.p0(i64 4, ptr %14) #9
  call void @llvm.lifetime.start.p0(i64 4, ptr %15) #9
  %27 = load ptr, ptr %7, align 8
  %28 = getelementptr inbounds nuw %struct.FormData_pg_foreign_server, ptr %27, i32 0, i32 0
  %29 = load i32, ptr %28, align 4
  store i32 %29, ptr %14, align 4
  %30 = load i32, ptr %14, align 4
  %31 = call i32 @GetUserId()
  %32 = call zeroext i1 @object_ownercheck(i32 noundef 1417, i32 noundef %30, i32 noundef %31)
  br i1 %32, label %38, label %33

33:                                               ; preds = %26
  %34 = load ptr, ptr %7, align 8
  %35 = getelementptr inbounds nuw %struct.FormData_pg_foreign_server, ptr %34, i32 0, i32 1
  %36 = getelementptr inbounds nuw %struct.nameData, ptr %35, i32 0, i32 0
  %37 = getelementptr inbounds [64 x i8], ptr %36, i64 0, i64 0
  call void @aclcheck_error(i32 noundef 2, i32 noundef 17, ptr noundef %37)
  br label %38

38:                                               ; preds = %33, %26
  %39 = call i32 @GetUserId()
  %40 = load i32, ptr %6, align 4
  call void @check_can_set_role(i32 noundef %39, i32 noundef %40)
  %41 = load ptr, ptr %7, align 8
  %42 = getelementptr inbounds nuw %struct.FormData_pg_foreign_server, ptr %41, i32 0, i32 3
  %43 = load i32, ptr %42, align 4
  %44 = load i32, ptr %6, align 4
  %45 = call i32 @object_aclcheck(i32 noundef 2328, i32 noundef %43, i32 noundef %44, i64 noundef 256)
  store i32 %45, ptr %15, align 4
  %46 = load i32, ptr %15, align 4
  %47 = icmp ne i32 %46, 0
  br i1 %47, label %48, label %57

48:                                               ; preds = %38
  call void @llvm.lifetime.start.p0(i64 8, ptr %16) #9
  %49 = load ptr, ptr %7, align 8
  %50 = getelementptr inbounds nuw %struct.FormData_pg_foreign_server, ptr %49, i32 0, i32 3
  %51 = load i32, ptr %50, align 4
  %52 = call ptr @GetForeignDataWrapper(i32 noundef %51)
  store ptr %52, ptr %16, align 8
  %53 = load i32, ptr %15, align 4
  %54 = load ptr, ptr %16, align 8
  %55 = getelementptr inbounds nuw %struct.ForeignDataWrapper, ptr %54, i32 0, i32 2
  %56 = load ptr, ptr %55, align 8
  call void @aclcheck_error(i32 noundef %53, i32 noundef 16, ptr noundef %56)
  call void @llvm.lifetime.end.p0(i64 8, ptr %16) #9
  br label %57

57:                                               ; preds = %48, %38
  call void @llvm.lifetime.end.p0(i64 4, ptr %15) #9
  call void @llvm.lifetime.end.p0(i64 4, ptr %14) #9
  br label %58

58:                                               ; preds = %57, %24
  %59 = getelementptr inbounds [8 x i8], ptr %9, i64 0, i64 0
  call void @llvm.memset.p0.i64(ptr align 1 %59, i8 0, i64 8, i1 false)
  %60 = getelementptr inbounds [8 x i8], ptr %10, i64 0, i64 0
  call void @llvm.memset.p0.i64(ptr align 1 %60, i8 0, i64 8, i1 false)
  %61 = getelementptr inbounds [8 x i8], ptr %10, i64 0, i64 2
  store i8 1, ptr %61, align 1
  %62 = load i32, ptr %6, align 4
  %63 = call i64 @ObjectIdGetDatum(i32 noundef %62)
  %64 = getelementptr inbounds [8 x i64], ptr %8, i64 0, i64 2
  store i64 %63, ptr %64, align 16
  %65 = load ptr, ptr %5, align 8
  %66 = load ptr, ptr %4, align 8
  %67 = getelementptr inbounds nuw %struct.RelationData, ptr %66, i32 0, i32 14
  %68 = load ptr, ptr %67, align 8
  %69 = call i64 @heap_getattr(ptr noundef %65, i32 noundef 7, ptr noundef %68, ptr noundef %13)
  store i64 %69, ptr %12, align 8
  %70 = load i8, ptr %13, align 1, !range !8, !noundef !9
  %71 = trunc i8 %70 to i1
  br i1 %71, label %85, label %72

72:                                               ; preds = %58
  %73 = load i64, ptr %12, align 8
  %74 = call ptr @DatumGetPointer(i64 noundef %73)
  %75 = call ptr @pg_detoast_datum(ptr noundef %74)
  %76 = load ptr, ptr %7, align 8
  %77 = getelementptr inbounds nuw %struct.FormData_pg_foreign_server, ptr %76, i32 0, i32 2
  %78 = load i32, ptr %77, align 4
  %79 = load i32, ptr %6, align 4
  %80 = call ptr @aclnewowner(ptr noundef %75, i32 noundef %78, i32 noundef %79)
  store ptr %80, ptr %11, align 8
  %81 = getelementptr inbounds [8 x i8], ptr %10, i64 0, i64 6
  store i8 1, ptr %81, align 1
  %82 = load ptr, ptr %11, align 8
  %83 = call i64 @PointerGetDatum(ptr noundef %82)
  %84 = getelementptr inbounds [8 x i64], ptr %8, i64 0, i64 6
  store i64 %83, ptr %84, align 16
  br label %85

85:                                               ; preds = %72, %58
  %86 = load ptr, ptr %5, align 8
  %87 = load ptr, ptr %4, align 8
  %88 = getelementptr inbounds nuw %struct.RelationData, ptr %87, i32 0, i32 14
  %89 = load ptr, ptr %88, align 8
  %90 = getelementptr inbounds [8 x i64], ptr %8, i64 0, i64 0
  %91 = getelementptr inbounds [8 x i8], ptr %9, i64 0, i64 0
  %92 = getelementptr inbounds [8 x i8], ptr %10, i64 0, i64 0
  %93 = call ptr @heap_modify_tuple(ptr noundef %86, ptr noundef %89, ptr noundef %90, ptr noundef %91, ptr noundef %92)
  store ptr %93, ptr %5, align 8
  %94 = load ptr, ptr %4, align 8
  %95 = load ptr, ptr %5, align 8
  %96 = getelementptr inbounds nuw %struct.HeapTupleData, ptr %95, i32 0, i32 1
  %97 = load ptr, ptr %5, align 8
  call void @CatalogTupleUpdate(ptr noundef %94, ptr noundef %96, ptr noundef %97)
  %98 = load ptr, ptr %7, align 8
  %99 = getelementptr inbounds nuw %struct.FormData_pg_foreign_server, ptr %98, i32 0, i32 0
  %100 = load i32, ptr %99, align 4
  %101 = load i32, ptr %6, align 4
  call void @changeDependencyOnOwner(i32 noundef 1417, i32 noundef %100, i32 noundef %101)
  br label %102

102:                                              ; preds = %85, %3
  br label %103

103:                                              ; preds = %102
  %104 = load ptr, ptr @object_access_hook, align 8
  %105 = icmp ne ptr %104, null
  br i1 %105, label %106, label %110

106:                                              ; preds = %103
  %107 = load ptr, ptr %7, align 8
  %108 = getelementptr inbounds nuw %struct.FormData_pg_foreign_server, ptr %107, i32 0, i32 0
  %109 = load i32, ptr %108, align 4
  call void @RunObjectPostAlterHook(i32 noundef 1417, i32 noundef %109, i32 noundef 0, i32 noundef 0, i1 noundef zeroext false)
  br label %110

110:                                              ; preds = %106, %103
  br label %111

111:                                              ; preds = %110
  br label %112

112:                                              ; preds = %111
  call void @llvm.lifetime.end.p0(i64 1, ptr %13) #9
  call void @llvm.lifetime.end.p0(i64 8, ptr %12) #9
  call void @llvm.lifetime.end.p0(i64 8, ptr %11) #9
  call void @llvm.lifetime.end.p0(i64 8, ptr %10) #9
  call void @llvm.lifetime.end.p0(i64 8, ptr %9) #9
  call void @llvm.lifetime.end.p0(i64 64, ptr %8) #9
  call void @llvm.lifetime.end.p0(i64 8, ptr %7) #9
  ret void
}