; Function Attrs: nounwind uwtable
define internal fastcc void @AlterForeignServerOwner_internal(ptr noundef %0, ptr noundef nonnull %1, i32 noundef %2) unnamed_addr #0 {
  %4 = alloca [8 x i64], align 16
  %5 = alloca [8 x i8], align 8
  %6 = alloca [8 x i8], align 8
  %7 = alloca i8, align 1
  call void @llvm.lifetime.start.p0(i64 64, ptr nonnull %4) #9
  call void @llvm.lifetime.start.p0(i64 8, ptr nonnull %5) #9
  call void @llvm.lifetime.start.p0(i64 8, ptr nonnull %6) #9
  call void @llvm.lifetime.start.p0(i64 1, ptr nonnull %7) #9
  %8 = getelementptr i8, ptr %1, i64 16
  %.val = load ptr, ptr %8, align 8
  %9 = getelementptr inbounds nuw i8, ptr %.val, i64 22
  %10 = load i8, ptr %9, align 2
  %11 = zext i8 %10 to i64
  %12 = getelementptr inbounds nuw i8, ptr %.val, i64 %11
  %13 = getelementptr inbounds nuw i8, ptr %12, i64 68
  %14 = load i32, ptr %13, align 4
  %.not = icmp eq i32 %14, %2
  br i1 %.not, label %54, label %15

15:                                               ; preds = %3
  %16 = tail call zeroext i1 @superuser() #9
  br i1 %16, label %33, label %17

17:                                               ; preds = %15
  %18 = load i32, ptr %12, align 4
  %19 = tail call i32 @GetUserId() #9
  %20 = tail call zeroext i1 @object_ownercheck(i32 noundef 1417, i32 noundef %18, i32 noundef %19) #9
  br i1 %20, label %23, label %21

21:                                               ; preds = %17
  %22 = getelementptr inbounds nuw i8, ptr %12, i64 4
  tail call void @aclcheck_error(i32 noundef 2, i32 noundef 17, ptr noundef nonnull %22) #9
  br label %23

23:                                               ; preds = %21, %17
  %24 = tail call i32 @GetUserId() #9
  tail call void @check_can_set_role(i32 noundef %24, i32 noundef %2) #9
  %25 = getelementptr inbounds nuw i8, ptr %12, i64 72
  %26 = load i32, ptr %25, align 4
  %27 = tail call i32 @object_aclcheck(i32 noundef 2328, i32 noundef %26, i32 noundef %2, i64 noundef 256) #9
  %.not28 = icmp eq i32 %27, 0
  br i1 %.not28, label %33, label %28

28:                                               ; preds = %23
  %29 = load i32, ptr %25, align 4
  %30 = tail call ptr @GetForeignDataWrapper(i32 noundef %29) #9
  %31 = getelementptr inbounds nuw i8, ptr %30, i64 8
  %32 = load ptr, ptr %31, align 8
  tail call void @aclcheck_error(i32 noundef %27, i32 noundef 16, ptr noundef %32) #9
  br label %33

33:                                               ; preds = %23, %28, %15
  store i64 0, ptr %5, align 8
  store i64 65536, ptr %6, align 8
  %34 = zext i32 %2 to i64
  %35 = getelementptr inbounds nuw i8, ptr %4, i64 16
  store i64 %34, ptr %35, align 16
  %36 = getelementptr inbounds nuw i8, ptr %0, i64 64
  %37 = load ptr, ptr %36, align 8
  %38 = call fastcc i64 @heap_getattr(ptr noundef %1, i32 noundef 7, ptr noundef %37, ptr noundef %7)
  %39 = load i8, ptr %7, align 1, !range !4, !noundef !5
  %40 = trunc nuw i8 %39 to i1
  br i1 %40, label %49, label %41

41:                                               ; preds = %33
  %42 = inttoptr i64 %38 to ptr
  %43 = call ptr @pg_detoast_datum(ptr noundef %42) #9
  %44 = load i32, ptr %13, align 4
  %45 = call ptr @aclnewowner(ptr noundef %43, i32 noundef %44, i32 noundef %2) #9
  %46 = getelementptr inbounds nuw i8, ptr %6, i64 6
  store i8 1, ptr %46, align 2
  %47 = ptrtoint ptr %45 to i64
  %48 = getelementptr inbounds nuw i8, ptr %4, i64 48
  store i64 %47, ptr %48, align 16
  br label %49

49:                                               ; preds = %41, %33
  %50 = load ptr, ptr %36, align 8
  %51 = call ptr @heap_modify_tuple(ptr noundef nonnull %1, ptr noundef %50, ptr noundef nonnull %4, ptr noundef nonnull %5, ptr noundef nonnull %6) #9
  %52 = getelementptr inbounds nuw i8, ptr %51, i64 4
  call void @CatalogTupleUpdate(ptr noundef nonnull %0, ptr noundef nonnull %52, ptr noundef %51) #9
  %53 = load i32, ptr %12, align 4
  call void @changeDependencyOnOwner(i32 noundef 1417, i32 noundef %53, i32 noundef %2) #9
  br label %54

54:                                               ; preds = %3, %49
  %55 = load ptr, ptr @object_access_hook, align 8
  %.not29 = icmp eq ptr %55, null
  br i1 %.not29, label %58, label %56

56:                                               ; preds = %54
  %57 = load i32, ptr %12, align 4
  call void @RunObjectPostAlterHook(i32 noundef 1417, i32 noundef %57, i32 noundef 0, i32 noundef 0, i1 noundef zeroext false) #9
  br label %58

58:                                               ; preds = %56, %54
  call void @llvm.lifetime.end.p0(i64 1, ptr nonnull %7) #9
  call void @llvm.lifetime.end.p0(i64 8, ptr nonnull %6) #9
  call void @llvm.lifetime.end.p0(i64 8, ptr nonnull %5) #9
  call void @llvm.lifetime.end.p0(i64 64, ptr nonnull %4) #9
  ret void
}